(dp1
S'layout'
p2
(ilayout
Layout
p3
(dp4
S'capsules'
p5
(lp6
(I3
I3
tp7
a(I16
I3
tp8
asS'numGhosts'
p9
I2
sS'food'
p10
(igame
Grid
p11
(dp12
S'CELLS_PER_INT'
p13
I30
sS'width'
p14
I20
sS'data'
p15
(lp16
(lp17
I00
aI00
aI00
aI00
aI00
aI00
aI00
aa(lp18
I00
aI01
aI01
aI01
aI01
aI01
aI00
aa(lp19
I00
aI01
aI00
aI00
aI00
aI01
aI00
aa(lp20
I00
aI01
aI00
aI00
aI00
aI01
aI00
aa(lp21
I00
aI01
aI01
aI01
aI01
aI01
aI00
aa(lp22
I00
aI01
aI00
aI00
aI01
aI01
aI00
aa(lp23
I00
aI01
aI01
aI01
aI01
aI01
aI00
aa(lp24
I00
aI01
aI00
aI01
aI00
aI00
aI00
aa(lp25
I00
aI01
aI00
aI01
aI00
aI00
aI00
aa(lp26
I00
aI00
aI00
aI01
aI00
aI00
aI00
aa(lp27
I00
aI01
aI00
aI01
aI00
aI00
aI00
aa(lp28
I00
aI01
aI00
aI01
aI00
aI00
aI00
aa(lp29
I00
aI01
aI00
aI01
aI00
aI00
aI00
aa(lp30
I00
aI01
aI01
aI01
aI01
aI01
aI00
aa(lp31
I00
aI01
aI00
aI00
aI01
aI01
aI00
aa(lp32
I00
aI01
aI01
aI01
aI01
aI01
aI00
aa(lp33
I00
aI01
aI00
aI00
aI00
aI01
aI00
aa(lp34
I00
aI01
aI00
aI00
aI00
aI01
aI00
aa(lp35
I00
aI01
aI01
aI01
aI01
aI01
aI00
aa(lp36
I00
aI00
aI00
aI00
aI00
aI00
aI00
aasS'height'
p37
I7
sbsS'agentPositions'
p38
(lp39
(I01
(I9
I1
tp40
tp41
a(I00
(I8
I5
tp42
tp43
a(I00
(I11
I5
tp44
tp45
asg37
I7
sg14
I20
sS'walls'
p46
(igame
Grid
p47
(dp48
g13
I30
sg14
I20
sg15
(lp49
(lp50
I01
aI01
aI01
aI01
aI01
aI01
aI01
aa(lp51
I01
aI00
aI00
aI00
aI00
aI00
aI01
aa(lp52
I01
aI00
aI01
aI01
aI01
aI00
aI01
aa(lp53
I01
aI00
aI01
aI00
aI01
aI00
aI01
aa(lp54
I01
aI00
aI00
aI00
aI00
aI00
aI01
aa(lp55
I01
aI00
aI01
aI01
aI00
aI00
aI01
aa(lp56
I01
aI00
aI00
aI00
aI00
aI00
aI01
aa(lp57
I01
aI00
aI01
aI00
aI01
aI01
aI01
aa(lp58
I01
aI00
aI01
aI00
aI01
aI00
aI01
aa(lp59
I01
aI00
aI01
aI00
aI00
aI00
aI01
aa(lp60
I01
aI00
aI01
aI00
aI00
aI00
aI01
aa(lp61
I01
aI00
aI01
aI00
aI01
aI00
aI01
aa(lp62
I01
aI00
aI01
aI00
aI01
aI01
aI01
aa(lp63
I01
aI00
aI00
aI00
aI00
aI00
aI01
aa(lp64
I01
aI00
aI01
aI01
aI00
aI00
aI01
aa(lp65
I01
aI00
aI00
aI00
aI00
aI00
aI01
aa(lp66
I01
aI00
aI01
aI00
aI01
aI00
aI01
aa(lp67
I01
aI00
aI01
aI01
aI01
aI00
aI01
aa(lp68
I01
aI00
aI00
aI00
aI00
aI00
aI01
aa(lp69
I01
aI01
aI01
aI01
aI01
aI01
aI01
aasg37
I7
sbsS'totalFood'
p70
I55
sS'layoutText'
p71
(lp72
S'%%%%%%%%%%%%%%%%%%%%'
p73
aS'%......%G  G%......%'
p74
aS'%.%%...%%  %%...%%.%'
p75
aS'%.%o.%........%.o%.%'
p76
aS'%.%%.%.%%%%%%.%.%%.%'
p77
aS'%........P.........%'
p78
aS'%%%%%%%%%%%%%%%%%%%%'
p79
asbsS'actions'
p80
(lp81
(I0
S'West'
p82
tp83
a(I1
S'East'
p84
tp85
a(I2
g82
tp86
a(I0
g82
tp87
a(I1
g84
tp88
a(I2
g82
tp89
a(I0
g82
tp90
a(I1
g84
tp91
a(I2
S'South'
p92
tp93
a(I0
g82
tp94
a(I1
g82
tp95
a(I2
g84
tp96
a(I0
g82
tp97
a(I1
g82
tp98
a(I2
g92
tp99
a(I0
g82
tp100
a(I1
g82
tp101
a(I2
g82
tp102
a(I0
g82
tp103
a(I1
g84
tp104
a(I2
g82
tp105
a(I0
g82
tp106
a(I1
g84
tp107
a(I2
g82
tp108
a(I0
S'North'
p109
tp110
a(I1
g84
tp111
a(I2
g82
tp112
a(I0
g109
tp113
a(I1
g82
tp114
a(I2
g92
tp115
a(I0
g109
tp116
a(I1
g82
tp117
a(I2
g92
tp118
a(I0
g109
tp119
a(I1
g82
tp120
a(I2
g82
tp121
a(I0
g84
tp122
a(I1
g84
tp123
a(I2
g82
tp124
a(I0
g84
tp125
a(I1
g92
tp126
a(I2
g109
tp127
a(I0
g84
tp128
a(I1
g92
tp129
a(I2
g109
tp130
a(I0
g84
tp131
a(I1
g82
tp132
a(I2
g109
tp133
a(I0
g84
tp134
a(I1
g82
tp135
a(I2
g109
tp136
a(I0
g92
tp137
a(I1
g82
tp138
a(I2
g84
tp139
a(I0
g82
tp140
a(I1
g92
tp141
a(I2
g84
tp142
a(I0
g82
tp143
a(I1
g92
tp144
a(I2
g92
tp145
a(I0
g92
tp146
a(I1
g82
tp147
a(I2
g82
tp148
a(I0
g82
tp149
a(I1
g82
tp150
a(I2
g82
tp151
a(I0
g84
tp152
a(I1
g82
tp153
a(I2
g82
tp154
a(I0
g92
tp155
a(I1
g109
tp156
a(I2
g92
tp157
a(I0
S'Stop'
p158
tp159
a(I1
g84
tp160
a(I2
g92
tp161
a(I0
g158
tp162
a(I1
g84
tp163
a(I2
g82
tp164
a(I0
g158
tp165
a(I1
g84
tp166
a(I2
g82
tp167
a(I0
g158
tp168
a(I1
g82
tp169
a(I2
g84
tp170
a(I0
g158
tp171
a(I1
g92
tp172
a(I2
g84
tp173
a(I0
g158
tp174
a(I1
g82
tp175
a(I2
g92
tp176
a(I0
g158
tp177
a(I1
g92
tp178
a(I2
g82
tp179
a(I0
g158
tp180
a(I1
g82
tp181
a(I2
g82
tp182
a(I0
g158
tp183
a(I1
g82
tp184
a(I2
g92
tp185
a(I0
g158
tp186
a(I1
g82
tp187
a(I2
g92
tp188
a(I0
g158
tp189
a(I1
g109
tp190
a(I2
g84
tp191
a(I0
g158
tp192
a(I1
g109
tp193
a(I2
g109
tp194
a(I0
g158
tp195
a(I1
g82
tp196
a(I2
g109
tp197
a(I0
g158
tp198
a(I1
g82
tp199
a(I2
g84
tp200
a(I0
g158
tp201
a(I1
g92
tp202
a(I2
g82
tp203
a(I0
g158
tp204
a(I1
g84
tp205
a(I2
g82
tp206
a(I0
g158
tp207
a(I1
g84
tp208
a(I2
g82
tp209
a(I0
g158
tp210
a(I1
g92
tp211
a(I2
g84
tp212
a(I0
g158
tp213
a(I1
g92
tp214
a(I2
g84
tp215
a(I0
g158
tp216
a(I1
g92
tp217
a(I2
g84
tp218
a(I0
g158
tp219
a(I1
g84
tp220
a(I2
g82
tp221
a(I0
g158
tp222
a(I1
g84
tp223
a(I2
g82
tp224
a(I0
g158
tp225
a(I1
g84
tp226
a(I2
g92
tp227
a(I0
g158
tp228
a(I1
g84
tp229
a(I2
g84
tp230
a(I0
g158
tp231
a(I1
g84
tp232
a(I2
g92
tp233
a(I0
g158
tp234
a(I1
g84
tp235
a(I2
g82
tp236
a(I0
g158
tp237
a(I1
g84
tp238
a(I2
g82
tp239
a(I0
g158
tp240
a(I1
g84
tp241
a(I2
g82
tp242
a(I0
g158
tp243
a(I1
g84
tp244
a(I2
g82
tp245
a(I0
g158
tp246
a(I1
g84
tp247
a(I2
g92
tp248
a(I0
g158
tp249
a(I1
g84
tp250
a(I2
g92
tp251
a(I0
g158
tp252
a(I1
g84
tp253
a(I2
g84
tp254
a(I0
g158
tp255
a(I1
g109
tp256
a(I2
g84
tp257
a(I0
g158
tp258
a(I1
g109
tp259
a(I2
g84
tp260
a(I0
g158
tp261
a(I1
g109
tp262
a(I2
g84
tp263
a(I0
g158
tp264
a(I1
g109
tp265
a(I2
g84
tp266
a(I0
g158
tp267
a(I1
g82
tp268
a(I2
g84
tp269
a(I0
g158
tp270
a(I1
g82
tp271
a(I2
g84
tp272
a(I0
g158
tp273
a(I1
g82
tp274
a(I2
g84
tp275
a(I0
g158
tp276
a(I1
g92
tp277
a(I2
g84
tp278
a(I0
g158
tp279
a(I1
g92
tp280
a(I2
g84
tp281
a(I0
g158
tp282
a(I1
g92
tp283
a(I2
g84
tp284
a(I0
g158
tp285
a(I1
g92
tp286
a(I2
g84
tp287
a(I0
g158
tp288
a(I1
g82
tp289
a(I2
g109
tp290
a(I0
g158
tp291
a(I1
g82
tp292
a(I2
g109
tp293
a(I0
g158
tp294
a(I1
g82
tp295
a(I2
g109
tp296
a(I0
g158
tp297
a(I1
g82
tp298
a(I2
g109
tp299
a(I0
g158
tp300
a(I1
g82
tp301
a(I2
g82
tp302
a(I0
g158
tp303
a(I1
g82
tp304
a(I2
g82
tp305
a(I0
g158
tp306
a(I1
g82
tp307
a(I2
g82
tp308
a(I0
g158
tp309
a(I1
g82
tp310
a(I2
g92
tp311
a(I0
g158
tp312
a(I1
g82
tp313
a(I2
g82
tp314
a(I0
g158
tp315
a(I1
g82
tp316
a(I2
g109
tp317
a(I0
g158
tp318
a(I1
g82
tp319
a(I2
g84
tp320
a(I0
g109
tp321
a(I1
g109
tp322
a(I2
g84
tp323
a(I0
g109
tp324
a(I1
g109
tp325
a(I2
g84
tp326
a(I0
g84
tp327
a(I1
g109
tp328
a(I2
g84
tp329
a(I0
g84
tp330
a(I1
g84
tp331
a(I2
g92
tp332
a(I0
g92
tp333
a(I1
g109
tp334
a(I2
g92
tp335
a(I0
g84
tp336
a(I1
g84
tp337
a(I2
g92
tp338
a(I0
g84
tp339
a(I1
g92
tp340
a(I2
g92
tp341
a(I0
g84
tp342
a(I1
g82
tp343
a(I2
g82
tp344
a(I0
g84
tp345
a(I1
g82
tp346
a(I2
g82
tp347
a(I0
g84
tp348
a(I1
g92
tp349
a(I2
g82
tp350
a(I0
g84
tp351
a(I1
g82
tp352
a(I2
g109
tp353
a(I0
g84
tp354
a(I1
g84
tp355
a(I2
g109
tp356
a(I0
g109
tp357
a(I1
g109
tp358
a(I2
g109
tp359
a(I0
g158
tp360
a(I1
g109
tp361
a(I2
g109
tp362
a(I0
g84
tp363
a(I1
g84
tp364
a(I2
g84
tp365
a(I0
g84
tp366
a(I1
g84
tp367
a(I2
g84
tp368
a(I0
g109
tp369
a(I1
g92
tp370
a(I2
g84
tp371
a(I0
g82
tp372
a(I1
g92
tp373
a(I2
g92
tp374
a(I0
g82
tp375
a(I1
g84
tp376
a(I2
g92
tp377
a(I0
g158
tp378
a(I1
g84
tp379
a(I2
g92
tp380
a(I0
g158
tp381
a(I1
g84
tp382
a(I2
g92
tp383
a(I0
g158
tp384
a(I1
g109
tp385
a(I2
g82
tp386
a(I0
g158
tp387
a(I1
g84
tp388
a(I2
g82
tp389
a(I0
g158
tp390
a(I1
g92
tp391
a(I2
g82
tp392
a(I0
g158
tp393
a(I1
g82
tp394
a(I2
g109
tp395
a(I0
g158
tp396
a(I1
g82
tp397
a(I2
g109
tp398
a(I0
g158
tp399
a(I1
g82
tp400
a(I2
g84
tp401
a(I0
g158
tp402
a(I1
g82
tp403
a(I2
g82
tp404
a(I0
g158
tp405
a(I1
g92
tp406
a(I2
g109
tp407
a(I0
g158
tp408
a(I1
g92
tp409
a(I2
g82
tp410
a(I0
g158
tp411
a(I1
g82
tp412
a(I2
g82
tp413
a(I0
g84
tp414
a(I1
g82
tp415
a(I2
g109
tp416
a(I0
g84
tp417
a(I1
g109
tp418
a(I2
g84
tp419
a(I0
g84
tp420
a(I1
g109
tp421
a(I2
g92
tp422
a(I0
g84
tp423
a(I1
g109
tp424
a(I2
g82
tp425
a(I0
g84
tp426
a(I1
g109
tp427
a(I2
g109
tp428
a(I0
g92
tp429
a(I1
g84
tp430
a(I2
g84
tp431
a(I0
g92
tp432
a(I1
g84
tp433
a(I2
g92
tp434
a(I0
g92
tp435
a(I1
g92
tp436
a(I2
g82
tp437
a(I0
g92
tp438
a(I1
g92
tp439
a(I2
g92
tp440
a(I0
g82
tp441
a(I1
g92
tp442
a(I2
g82
tp443
a(I0
g82
tp444
a(I1
g92
tp445
a(I2
g82
tp446
a(I0
g82
tp447
a(I1
g84
tp448
a(I2
g82
tp449
a(I0
g82
tp450
a(I1
g84
tp451
a(I2
g109
tp452
a(I0
g82
tp453
a(I1
g84
tp454
a(I2
g109
tp455
a(I0
g82
tp456
a(I1
g84
tp457
a(I2
g82
tp458
a(I0
g84
tp459
a(I1
g84
tp460
a(I2
g92
tp461
a(I0
g158
tp462
a(I1
g84
tp463
a(I2
g92
tp464
a(I0
g109
tp465
a(I1
g84
tp466
a(I2
g82
tp467
a(I0
g109
tp468
a(I1
g84
tp469
a(I2
g82
tp470
a(I0
g82
tp471
a(I1
g84
tp472
a(I2
g82
tp473
a(I0
g82
tp474
a(I1
g84
tp475
a(I2
g92
tp476
a(I0
g82
tp477
a(I1
g84
tp478
a(I2
g92
tp479
a(I0
g82
tp480
a(I1
g84
tp481
a(I2
g82
tp482
a(I0
g82
tp483
a(I1
g109
tp484
a(I2
g82
tp485
a(I0
g82
tp486
a(I1
g109
tp487
a(I2
g82
tp488
a(I0
g82
tp489
a(I1
g109
tp490
a(I2
g82
tp491
a(I0
g158
tp492
a(I1
g109
tp493
a(I2
g82
tp494
a(I0
g158
tp495
a(I1
g82
tp496
a(I2
g109
tp497
a(I0
g158
tp498
a(I1
g82
tp499
a(I2
g109
tp500
a(I0
g158
tp501
a(I1
g82
tp502
a(I2
g109
tp503
a(I0
g158
tp504
a(I1
g82
tp505
a(I2
g109
tp506
a(I0
g158
tp507
a(I1
g82
tp508
a(I2
g84
tp509
a(I0
g158
tp510
a(I1
g92
tp511
a(I2
g84
tp512
a(I0
g158
tp513
a(I1
g92
tp514
a(I2
g84
tp515
a(I0
g158
tp516
a(I1
g92
tp517
a(I2
g84
tp518
a(I0
g158
tp519
a(I1
g92
tp520
a(I2
g84
tp521
a(I0
g158
tp522
a(I1
g82
tp523
a(I2
g92
tp524
a(I0
g92
tp525
a(I1
g82
tp526
a(I2
g82
tp527
a(I0
g158
tp528
a(I1
g82
tp529
a(I2
g109
tp530
a(I0
g158
tp531
a(I1
g82
tp532
a(I2
g84
tp533
a(I0
g158
tp534
a(I1
g82
tp535
a(I2
g92
tp536
a(I0
g92
tp537
a(I1
g82
tp538
a(I2
g92
tp539
a(I0
g82
tp540
a(I1
g82
tp541
a(I2
g92
tp542
a(I0
g82
tp543
a(I1
g109
tp544
a(I2
g92
tp545
a(I0
g82
tp546
a(I1
g109
tp547
a(I2
g82
tp548
a(I0
g82
tp549
a(I1
g84
tp550
a(I2
g82
tp551
a(I0
g82
tp552
a(I1
g84
tp553
a(I2
g109
tp554
a(I0
g158
tp555
a(I1
g84
tp556
a(I2
g109
tp557
a(I0
g158
tp558
a(I1
g84
tp559
a(I2
g109
tp560
a(I0
g158
tp561
a(I1
g84
tp562
a(I2
g109
tp563
a(I0
g158
tp564
a(I1
g84
tp565
a(I2
g82
tp566
a(I0
g158
tp567
a(I1
g84
tp568
a(I2
g82
tp569
a(I0
g158
tp570
a(I1
g109
tp571
a(I2
g82
tp572
a(I0
g158
tp573
a(I1
g109
tp574
a(I2
g92
tp575
a(I0
g158
tp576
a(I1
g84
tp577
a(I2
g92
tp578
a(I0
g158
tp579
a(I1
g92
tp580
a(I2
g92
tp581
a(I0
g84
tp582
a(I1
g82
tp583
a(I2
g92
tp584
a(I0
g84
tp585
a(I1
g92
tp586
a(I2
g84
tp587
a(I0
g84
tp588
a(I1
g82
tp589
a(I2
g84
tp590
a(I0
g84
tp591
a(I1
g82
tp592
a(I2
g84
tp593
a(I0
g84
tp594
a(I1
g82
tp595
a(I2
g84
tp596
a(I0
g84
tp597
a(I1
g82
tp598
a(I2
g84
tp599
a(I0
g84
tp600
a(I1
g82
tp601
a(I2
g84
tp602
a(I0
g84
tp603
a(I1
g82
tp604
a(I2
g84
tp605
a(I0
g84
tp606
a(I1
g82
tp607
a(I2
g84
tp608
a(I0
g84
tp609
a(I1
g92
tp610
a(I2
g84
tp611
a(I0
g84
tp612
a(I1
g92
tp613
a(I2
g84
tp614
a(I0
g84
tp615
a(I1
g84
tp616
a(I2
g84
tp617
a(I0
g84
tp618
a(I1
g84
tp619
a(I2
g84
tp620
a(I0
g84
tp621
a(I1
g84
tp622
a(I2
g84
tp623
a(I0
g109
tp624
a(I1
g84
tp625
a(I2
g84
tp626
a(I0
g109
tp627
as.